target datalayout = "e-m:e-p270:32:32-p271:32:32-p272:64:64-i64:64-i128:128-f80:128-n8:16:32:64-S128"
target triple = "x86_64-pc-linux-gnu"

%class.PendingDescriptor = type { i32, i32, i8, i8, i8, i32, i32 }

; Function Attrs: mustprogress nounwind uwtable
define dso_local void @_ZN17PendingDescriptorC2Eijaajj(ptr noundef nonnull align 4 dereferenceable(20) %0, i32 noundef %1, i32 noundef %2, i8 noundef signext %3, i8 noundef signext %4, i32 noundef %5, i32 noundef %6) unnamed_addr #4 align 2 {
  %8 = alloca ptr, align 8
  %9 = alloca i32, align 4
  %10 = alloca i32, align 4
  %11 = alloca i8, align 1
  %12 = alloca i8, align 1
  %13 = alloca i32, align 4
  %14 = alloca i32, align 4
  store ptr %0, ptr %8, align 8, !tbaa !110
  store i32 %1, ptr %9, align 4, !tbaa !15
  store i32 %2, ptr %10, align 4, !tbaa !15
  store i8 %3, ptr %11, align 1, !tbaa !105
  store i8 %4, ptr %12, align 1, !tbaa !105
  store i32 %5, ptr %13, align 4, !tbaa !15
  store i32 %6, ptr %14, align 4, !tbaa !15
  %15 = load ptr, ptr %8, align 8
  %16 = getelementptr inbounds nuw %class.PendingDescriptor, ptr %15, i32 0, i32 0
  %17 = load i32, ptr %9, align 4, !tbaa !15
  store i32 %17, ptr %16, align 4, !tbaa !112
  %18 = getelementptr inbounds nuw %class.PendingDescriptor, ptr %15, i32 0, i32 1
  %19 = load i32, ptr %10, align 4, !tbaa !15
  store i32 %19, ptr %18, align 4, !tbaa !114
  %20 = getelementptr inbounds nuw %class.PendingDescriptor, ptr %15, i32 0, i32 2
  store i8 1, ptr %20, align 4, !tbaa !115
  %21 = getelementptr inbounds nuw %class.PendingDescriptor, ptr %15, i32 0, i32 3
  %22 = load i8, ptr %11, align 1, !tbaa !105
  store i8 %22, ptr %21, align 1, !tbaa !116
  %23 = getelementptr inbounds nuw %class.PendingDescriptor, ptr %15, i32 0, i32 4
  %24 = load i8, ptr %12, align 1, !tbaa !105
  store i8 %24, ptr %23, align 2, !tbaa !117
  %25 = getelementptr inbounds nuw %class.PendingDescriptor, ptr %15, i32 0, i32 5
  %26 = load i32, ptr %13, align 4, !tbaa !15
  store i32 %26, ptr %25, align 4, !tbaa !118
  %27 = getelementptr inbounds nuw %class.PendingDescriptor, ptr %15, i32 0, i32 6
  %28 = load i32, ptr %14, align 4, !tbaa !15
  store i32 %28, ptr %27, align 4, !tbaa !119
  ret void
}