; Function Attrs: mustprogress nofree norecurse nosync nounwind willreturn memory(argmem: write) uwtable
define dso_local void @_ZN17PendingDescriptorC2Eijaajj(ptr noundef nonnull writeonly align 4 captures(none) dereferenceable(20) initializes((0, 11), (12, 20)) %0, i32 noundef %1, i32 noundef %2, i8 noundef signext %3, i8 noundef signext %4, i32 noundef %5, i32 noundef %6) unnamed_addr #15 align 2 {
  store i32 %1, ptr %0, align 4, !tbaa !87
  %8 = getelementptr inbounds nuw i8, ptr %0, i64 4
  store i32 %2, ptr %8, align 4, !tbaa !89
  %9 = getelementptr inbounds nuw i8, ptr %0, i64 8
  store i8 1, ptr %9, align 4, !tbaa !90
  %10 = getelementptr inbounds nuw i8, ptr %0, i64 9
  store i8 %3, ptr %10, align 1, !tbaa !91
  %11 = getelementptr inbounds nuw i8, ptr %0, i64 10
  store i8 %4, ptr %11, align 2, !tbaa !92
  %12 = getelementptr inbounds nuw i8, ptr %0, i64 12
  store i32 %5, ptr %12, align 4, !tbaa !93
  %13 = getelementptr inbounds nuw i8, ptr %0, i64 16
  store i32 %6, ptr %13, align 4, !tbaa !94
  ret void
}